target datalayout = "e-m:e-p270:32:32-p271:32:32-p272:64:64-i64:64-i128:128-f80:128-n8:16:32:64-S128"
target triple = "x86_64-unknown-linux-gnu"

%struct.OptsVisitor = type { %struct.Visitor, ptr, i32, ptr, i32, ptr, %union.anon, %union.anon, ptr }
%struct.Visitor = type { ptr, ptr, ptr, ptr, ptr, ptr, ptr, ptr, ptr, ptr, ptr, ptr, ptr, ptr, ptr, ptr, ptr, ptr, ptr, ptr, i32, %struct.CompatPolicy, ptr, ptr }
%struct.CompatPolicy = type { i8, i32, i8, i32, i8, i32, i8, i32 }
%union.anon = type { i64 }

; Function Attrs: nounwind sspstrong uwtable
define internal ptr @to_ov(ptr noundef %v) #0 {
entry:
  %v.addr = alloca ptr, align 8
  %__mptr = alloca ptr, align 8
  %tmp = alloca ptr, align 8
  store ptr %v, ptr %v.addr, align 8
  %0 = load ptr, ptr %v.addr, align 8
  store ptr %0, ptr %__mptr, align 8
  %1 = load ptr, ptr %__mptr, align 8
  %add.ptr = getelementptr i8, ptr %1, i64 0
  store ptr %add.ptr, ptr %tmp, align 8
  %2 = load ptr, ptr %tmp, align 8
  ret ptr %2
}

; Function Attrs: nounwind sspstrong uwtable
define internal void @opts_free(ptr noundef %v) #0 {
entry:
  %v.addr = alloca ptr, align 8
  %ov = alloca ptr, align 8
  store ptr %v, ptr %v.addr, align 8
  %0 = load ptr, ptr %v.addr, align 8
  %call = call ptr @to_ov(ptr noundef %0)
  store ptr %call, ptr %ov, align 8
  %1 = load ptr, ptr %ov, align 8
  %unprocessed_opts = getelementptr inbounds %struct.OptsVisitor, ptr %1, i32 0, i32 3
  %2 = load ptr, ptr %unprocessed_opts, align 8
  %cmp = icmp ne ptr %2, null
  br i1 %cmp, label %if.then, label %if.end

if.then:                                          ; preds = %entry
  %3 = load ptr, ptr %ov, align 8
  %unprocessed_opts1 = getelementptr inbounds %struct.OptsVisitor, ptr %3, i32 0, i32 3
  %4 = load ptr, ptr %unprocessed_opts1, align 8
  call void @g_hash_table_destroy(ptr noundef %4)
  br label %if.end

if.end:                                           ; preds = %if.then, %entry
  %5 = load ptr, ptr %ov, align 8
  %fake_id_opt = getelementptr inbounds %struct.OptsVisitor, ptr %5, i32 0, i32 8
  %6 = load ptr, ptr %fake_id_opt, align 8
  call void @g_free(ptr noundef %6)
  %7 = load ptr, ptr %ov, align 8
  call void @g_free(ptr noundef %7)
  ret void
}