; Function Attrs: nounwind sspstrong uwtable
define internal void @opts_free(ptr noundef %v) #0 {
entry:
  %unprocessed_opts = getelementptr inbounds nuw i8, ptr %v, i64 232
  %0 = load ptr, ptr %unprocessed_opts, align 8
  %cmp.not = icmp eq ptr %0, null
  br i1 %cmp.not, label %if.end, label %if.then

if.then:                                          ; preds = %entry
  tail call void @g_hash_table_destroy(ptr noundef nonnull %0) #10
  br label %if.end

if.end:                                           ; preds = %if.then, %entry
  %fake_id_opt = getelementptr inbounds nuw i8, ptr %v, i64 272
  %1 = load ptr, ptr %fake_id_opt, align 8
  tail call void @g_free(ptr noundef %1) #10
  tail call void @g_free(ptr noundef nonnull %v) #10
  ret void
}